Microsoft (R) Macro Assembler Version 14.00.24210.0	    04/21/17 10:08:00
shellcode.asm						     Page 1 - 1


				.386 
				.model flat, stdcall 
				;.data 
				;test_data		dd 3
				;shellcode_addr  dd test_fun

				.stack 100h

 00000000			.code 
 00000000 00000000		shellcode_start_addr dd 0
				;test_d0 dd 88888888h
				;test_d1 dd 88888888h
				;test_d2 dd 88888888h
				;test_d3 dd 88888888h
 00000004			test_fun PROC 
					;;mov eax, test_data
					;add eax, 1	
					;mov eax, ecx	 
					;;mov test_data, eax

					;ASSUME FS:NOTHING
					;xor ebx, ebx            ;//clear ebx
					;mov ebx, fs:[ 30h ]    ;//get a pointer to the PEB
					;mov ebx, [ ebx + 0Ch ] ;//get PEB->Ldr
					;mov ebx, [ ebx + 14h ] ;//get PEB->Ldr.InMemoryOrderModuleList.Flink(1st entry) **here**       
					;mov ebx, [ ebx ]        ;//get the next entry(2nd entry)
					;mov ebx, [ ebx ]        ;//get the next entry(3rd entry)
					;mov ebx, [ ebx + 10h ] ;//get the 3rd entries base address(kernel32.dll)
					;ASSUME FS:ERROR




					ASSUME FS:NOTHING
 00000004  FC				cld ;// clear the direction flag for the loop
 00000005  33 D2			xor edx, edx ;// zero edx
					;;mov edx, [fs:edx+30h] ;// get a pointer to the PEB
 00000007  64: 8B 15			mov edx, fs:[ 30h ]    ;//get a pointer to the PEB
	   00000030
 0000000E  8B 52 0C			mov edx, [edx+0Ch] ;// get PEB->Ldr
 00000011  8B 52 14			mov edx, [edx+14h] ;// get the first module from the InMemoryOrder module list
 00000014			next_mod:
 00000014  8B 72 28			mov esi, [edx+28h] ;// get pointer to modules name (unicode string)
 00000017  6A 18			push 24 ;// push down the length we want to check
 00000019  59				pop ecx ;// set ecx to this length for the loop
 0000001A  33 FF			xor edi, edi ;// clear edi which will store the hash of the module name
 0000001C			loop_modname:
 0000001C  33 C0			xor eax, eax ;// clear eax
 0000001E  AC				lodsb ;// read in the next byte of the name
 0000001F  3C 61			cmp al, 'a' ;// some versions of Windows use lower case module names
 00000021  7C 02			jl not_lowercase
 00000023  2C 20			sub al, 20h ;// if so normalise to uppercase
 00000025			not_lowercase:
 00000025  C1 CF 0D			ror edi, 13 ;// rotate right our hash value
 00000028  03 F8			add edi, eax ;// add the next byte of the name to the hash
 0000002A  E2 F0			loop loop_modname ;// loop until we have read enough
 0000002C  81 FF 6A4ABC5B		cmp edi, 6A4ABC5Bh ;// compare the hash with that of KERNEL32.DLL
 00000032  8B 5A 10			mov ebx, [edx+10h] ;// get this modules base address
 00000035  8B 12			mov edx, [edx] ;// get the next module
 00000037  75 DB			jne next_mod ;// if it doesn't match, process the next module

 00000039  8B C3			mov eax, ebx
					ASSUME FS:ERROR






 0000003B  C3				ret
 0000003C			test_fun ENDP
 0000003C 88888888		test_d4 dd 88888888h
 00000040 88888888		test_d5 dd 88888888h
 00000044 88888888		test_d6 dd 88888888h
 00000048 88888888		test_d7 dd 88888888h

 0000004C 0000004C R		shellcode_end_addr	dd shellcode_end_addr
 00000050 0050			shellcode_s dw shellcode_s - shellcode_start_addr
 00000052 00000000		load_lib_addr dd 0

				PUBLIC shellcode_start_addr
				PUBLIC shellcode_end_addr 
				PUBLIC shellcode_s
				PUBLIC load_lib_addr 
				END

 
Microsoft (R) Macro Assembler Version 14.00.24210.0	    04/21/17 10:08:00
shellcode.asm						     Symbols 2 - 1




Segments and Groups:

                N a m e                 Size     Length   Align   Combine Class

FLAT . . . . . . . . . . . . . .	GROUP
STACK  . . . . . . . . . . . . .	32 Bit	 00000100 DWord	  Stack	  'STACK'	 
_DATA  . . . . . . . . . . . . .	32 Bit	 00000000 DWord	  Public  'DATA'	
_TEXT  . . . . . . . . . . . . .	32 Bit	 00000056 DWord	  Public  'CODE'	


Procedures, parameters, and locals:

                N a m e                 Type     Value    Attr

test_fun . . . . . . . . . . . .	P Near	 00000004 _TEXT	Length= 00000038 Public STDCALL
  next_mod . . . . . . . . . . .	L Near	 00000014 _TEXT	
  loop_modname . . . . . . . . .	L Near	 0000001C _TEXT	
  not_lowercase  . . . . . . . .	L Near	 00000025 _TEXT	


Symbols:

                N a m e                 Type     Value    Attr

@CodeSize  . . . . . . . . . . .	Number	 00000000h   
@DataSize  . . . . . . . . . . .	Number	 00000000h   
@Interface . . . . . . . . . . .	Number	 00000003h   
@Model . . . . . . . . . . . . .	Number	 00000007h   
@code  . . . . . . . . . . . . .	Text   	 _TEXT
@data  . . . . . . . . . . . . .	Text   	 FLAT
@fardata?  . . . . . . . . . . .	Text   	 FLAT
@fardata . . . . . . . . . . . .	Text   	 FLAT
@stack . . . . . . . . . . . . .	Text   	 FLAT
load_lib_addr  . . . . . . . . .	DWord	 00000052 _TEXT	Public STDCALL
shellcode_end_addr . . . . . . .	DWord	 0000004C _TEXT	Public STDCALL
shellcode_start_addr . . . . . .	DWord	 00000000 _TEXT	Public STDCALL
shellcode_s  . . . . . . . . . .	Word	 00000050 _TEXT	Public STDCALL
test_d4  . . . . . . . . . . . .	DWord	 0000003C _TEXT	
test_d5  . . . . . . . . . . . .	DWord	 00000040 _TEXT	
test_d6  . . . . . . . . . . . .	DWord	 00000044 _TEXT	
test_d7  . . . . . . . . . . . .	DWord	 00000048 _TEXT	

	   0 Warnings
	   0 Errors
